target datalayout = "e-m:e-p270:32:32-p271:32:32-p272:64:64-i64:64-i128:128-f80:128-n8:16:32:64-S128"
target triple = "x86_64-pc-linux-gnu"

%struct.AVFifo = type { ptr, i64, i64, i64, i64, i32, i32, i64 }

; Function Attrs: nounwind uwtable
define i32 @av_fifo_grow2(ptr noundef %0, i64 noundef %1) #0 {
  %3 = alloca i32, align 4
  %4 = alloca ptr, align 8
  %5 = alloca i64, align 8
  %6 = alloca ptr, align 8
  %7 = alloca i32, align 4
  %8 = alloca i64, align 8
  store ptr %0, ptr %4, align 8, !tbaa !12
  store i64 %1, ptr %5, align 8, !tbaa !4
  call void @llvm.lifetime.start.p0(i64 8, ptr %6) #5
  %9 = load i64, ptr %5, align 8, !tbaa !4
  %10 = load ptr, ptr %4, align 8, !tbaa !12
  %11 = getelementptr inbounds nuw %struct.AVFifo, ptr %10, i32 0, i32 2
  %12 = load i64, ptr %11, align 8, !tbaa !17
  %13 = sub i64 -1, %12
  %14 = icmp ugt i64 %9, %13
  br i1 %14, label %15, label %16

15:                                               ; preds = %2
  store i32 -22, ptr %3, align 4
  store i32 1, ptr %7, align 4
  br label %127

16:                                               ; preds = %2
  %17 = load ptr, ptr %4, align 8, !tbaa !12
  %18 = getelementptr inbounds nuw %struct.AVFifo, ptr %17, i32 0, i32 0
  %19 = load ptr, ptr %18, align 8, !tbaa !14
  %20 = load ptr, ptr %4, align 8, !tbaa !12
  %21 = getelementptr inbounds nuw %struct.AVFifo, ptr %20, i32 0, i32 2
  %22 = load i64, ptr %21, align 8, !tbaa !17
  %23 = load i64, ptr %5, align 8, !tbaa !4
  %24 = add i64 %22, %23
  %25 = load ptr, ptr %4, align 8, !tbaa !12
  %26 = getelementptr inbounds nuw %struct.AVFifo, ptr %25, i32 0, i32 1
  %27 = load i64, ptr %26, align 8, !tbaa !18
  %28 = call ptr @av_realloc_array(ptr noundef %19, i64 noundef %24, i64 noundef %27)
  store ptr %28, ptr %6, align 8, !tbaa !24
  %29 = load ptr, ptr %6, align 8, !tbaa !24
  %30 = icmp ne ptr %29, null
  br i1 %30, label %32, label %31

31:                                               ; preds = %16
  store i32 -12, ptr %3, align 4
  store i32 1, ptr %7, align 4
  br label %127

32:                                               ; preds = %16
  %33 = load ptr, ptr %6, align 8, !tbaa !24
  %34 = load ptr, ptr %4, align 8, !tbaa !12
  %35 = getelementptr inbounds nuw %struct.AVFifo, ptr %34, i32 0, i32 0
  store ptr %33, ptr %35, align 8, !tbaa !14
  %36 = load ptr, ptr %4, align 8, !tbaa !12
  %37 = getelementptr inbounds nuw %struct.AVFifo, ptr %36, i32 0, i32 4
  %38 = load i64, ptr %37, align 8, !tbaa !22
  %39 = load ptr, ptr %4, align 8, !tbaa !12
  %40 = getelementptr inbounds nuw %struct.AVFifo, ptr %39, i32 0, i32 3
  %41 = load i64, ptr %40, align 8, !tbaa !23
  %42 = icmp ule i64 %38, %41
  br i1 %42, label %43, label %121

43:                                               ; preds = %32
  %44 = load ptr, ptr %4, align 8, !tbaa !12
  %45 = getelementptr inbounds nuw %struct.AVFifo, ptr %44, i32 0, i32 5
  %46 = load i32, ptr %45, align 8, !tbaa !19
  %47 = icmp ne i32 %46, 0
  br i1 %47, label %121, label %48

48:                                               ; preds = %43
  call void @llvm.lifetime.start.p0(i64 8, ptr %8) #5
  %49 = load i64, ptr %5, align 8, !tbaa !4
  %50 = load ptr, ptr %4, align 8, !tbaa !12
  %51 = getelementptr inbounds nuw %struct.AVFifo, ptr %50, i32 0, i32 4
  %52 = load i64, ptr %51, align 8, !tbaa !22
  %53 = icmp ugt i64 %49, %52
  br i1 %53, label %54, label %58

54:                                               ; preds = %48
  %55 = load ptr, ptr %4, align 8, !tbaa !12
  %56 = getelementptr inbounds nuw %struct.AVFifo, ptr %55, i32 0, i32 4
  %57 = load i64, ptr %56, align 8, !tbaa !22
  br label %60

58:                                               ; preds = %48
  %59 = load i64, ptr %5, align 8, !tbaa !4
  br label %60

60:                                               ; preds = %58, %54
  %61 = phi i64 [ %57, %54 ], [ %59, %58 ]
  store i64 %61, ptr %8, align 8, !tbaa !4
  %62 = load ptr, ptr %6, align 8, !tbaa !24
  %63 = load ptr, ptr %4, align 8, !tbaa !12
  %64 = getelementptr inbounds nuw %struct.AVFifo, ptr %63, i32 0, i32 2
  %65 = load i64, ptr %64, align 8, !tbaa !17
  %66 = load ptr, ptr %4, align 8, !tbaa !12
  %67 = getelementptr inbounds nuw %struct.AVFifo, ptr %66, i32 0, i32 1
  %68 = load i64, ptr %67, align 8, !tbaa !18
  %69 = mul i64 %65, %68
  %70 = getelementptr inbounds nuw i8, ptr %62, i64 %69
  %71 = load ptr, ptr %6, align 8, !tbaa !24
  %72 = load i64, ptr %8, align 8, !tbaa !4
  %73 = load ptr, ptr %4, align 8, !tbaa !12
  %74 = getelementptr inbounds nuw %struct.AVFifo, ptr %73, i32 0, i32 1
  %75 = load i64, ptr %74, align 8, !tbaa !18
  %76 = mul i64 %72, %75
  call void @llvm.memcpy.p0.p0.i64(ptr align 1 %70, ptr align 1 %71, i64 %76, i1 false)
  %77 = load i64, ptr %8, align 8, !tbaa !4
  %78 = load ptr, ptr %4, align 8, !tbaa !12
  %79 = getelementptr inbounds nuw %struct.AVFifo, ptr %78, i32 0, i32 4
  %80 = load i64, ptr %79, align 8, !tbaa !22
  %81 = icmp ult i64 %77, %80
  br i1 %81, label %82, label %105

82:                                               ; preds = %60
  %83 = load ptr, ptr %6, align 8, !tbaa !24
  %84 = load ptr, ptr %6, align 8, !tbaa !24
  %85 = load i64, ptr %8, align 8, !tbaa !4
  %86 = load ptr, ptr %4, align 8, !tbaa !12
  %87 = getelementptr inbounds nuw %struct.AVFifo, ptr %86, i32 0, i32 1
  %88 = load i64, ptr %87, align 8, !tbaa !18
  %89 = mul i64 %85, %88
  %90 = getelementptr inbounds nuw i8, ptr %84, i64 %89
  %91 = load ptr, ptr %4, align 8, !tbaa !12
  %92 = getelementptr inbounds nuw %struct.AVFifo, ptr %91, i32 0, i32 4
  %93 = load i64, ptr %92, align 8, !tbaa !22
  %94 = load i64, ptr %8, align 8, !tbaa !4
  %95 = sub i64 %93, %94
  %96 = load ptr, ptr %4, align 8, !tbaa !12
  %97 = getelementptr inbounds nuw %struct.AVFifo, ptr %96, i32 0, i32 1
  %98 = load i64, ptr %97, align 8, !tbaa !18
  %99 = mul i64 %95, %98
  call void @llvm.memmove.p0.p0.i64(ptr align 1 %83, ptr align 1 %90, i64 %99, i1 false)
  %100 = load i64, ptr %8, align 8, !tbaa !4
  %101 = load ptr, ptr %4, align 8, !tbaa !12
  %102 = getelementptr inbounds nuw %struct.AVFifo, ptr %101, i32 0, i32 4
  %103 = load i64, ptr %102, align 8, !tbaa !22
  %104 = sub i64 %103, %100
  store i64 %104, ptr %102, align 8, !tbaa !22
  br label %120

105:                                              ; preds = %60
  %106 = load i64, ptr %8, align 8, !tbaa !4
  %107 = load i64, ptr %5, align 8, !tbaa !4
  %108 = icmp eq i64 %106, %107
  br i1 %108, label %109, label %110

109:                                              ; preds = %105
  br label %116

110:                                              ; preds = %105
  %111 = load ptr, ptr %4, align 8, !tbaa !12
  %112 = getelementptr inbounds nuw %struct.AVFifo, ptr %111, i32 0, i32 2
  %113 = load i64, ptr %112, align 8, !tbaa !17
  %114 = load i64, ptr %8, align 8, !tbaa !4
  %115 = add i64 %113, %114
  br label %116

116:                                              ; preds = %110, %109
  %117 = phi i64 [ 0, %109 ], [ %115, %110 ]
  %118 = load ptr, ptr %4, align 8, !tbaa !12
  %119 = getelementptr inbounds nuw %struct.AVFifo, ptr %118, i32 0, i32 4
  store i64 %117, ptr %119, align 8, !tbaa !22
  br label %120

120:                                              ; preds = %116, %82
  call void @llvm.lifetime.end.p0(i64 8, ptr %8) #5
  br label %121

121:                                              ; preds = %120, %43, %32
  %122 = load i64, ptr %5, align 8, !tbaa !4
  %123 = load ptr, ptr %4, align 8, !tbaa !12
  %124 = getelementptr inbounds nuw %struct.AVFifo, ptr %123, i32 0, i32 2
  %125 = load i64, ptr %124, align 8, !tbaa !17
  %126 = add i64 %125, %122
  store i64 %126, ptr %124, align 8, !tbaa !17
  store i32 0, ptr %3, align 4
  store i32 1, ptr %7, align 4
  br label %127

127:                                              ; preds = %121, %31, %15
  call void @llvm.lifetime.end.p0(i64 8, ptr %6) #5
  %128 = load i32, ptr %3, align 4
  ret i32 %128
}