; Function Attrs: nounwind uwtable
define range(i32 -22, 1) i32 @av_fifo_grow2(ptr noundef captures(none) %0, i64 noundef %1) local_unnamed_addr #0 {
  %3 = getelementptr inbounds nuw i8, ptr %0, i64 16
  %4 = load i64, ptr %3, align 8, !tbaa !12
  %5 = xor i64 %4, -1
  %6 = icmp ugt i64 %1, %5
  br i1 %6, label %45, label %7

7:                                                ; preds = %2
  %8 = load ptr, ptr %0, align 8, !tbaa !4
  %9 = add i64 %4, %1
  %10 = getelementptr inbounds nuw i8, ptr %0, i64 8
  %11 = load i64, ptr %10, align 8, !tbaa !13
  %12 = tail call ptr @av_realloc_array(ptr noundef %8, i64 noundef %9, i64 noundef %11) #10
  %.not = icmp eq ptr %12, null
  br i1 %.not, label %45, label %13

13:                                               ; preds = %7
  store ptr %12, ptr %0, align 8, !tbaa !4
  %14 = getelementptr inbounds nuw i8, ptr %0, i64 32
  %15 = load i64, ptr %14, align 8, !tbaa !17
  %16 = getelementptr inbounds nuw i8, ptr %0, i64 24
  %17 = load i64, ptr %16, align 8, !tbaa !18
  %.not45 = icmp ugt i64 %15, %17
  br i1 %.not45, label %42, label %18

18:                                               ; preds = %13
  %19 = getelementptr inbounds nuw i8, ptr %0, i64 40
  %20 = load i32, ptr %19, align 8, !tbaa !14
  %.not46 = icmp eq i32 %20, 0
  br i1 %.not46, label %21, label %42

21:                                               ; preds = %18
  %. = tail call i64 @llvm.umin.i64(i64 %1, i64 %15)
  %22 = load i64, ptr %3, align 8, !tbaa !12
  %23 = load i64, ptr %10, align 8, !tbaa !13
  %24 = mul i64 %23, %22
  %25 = getelementptr inbounds nuw i8, ptr %12, i64 %24
  %26 = mul i64 %23, %.
  tail call void @llvm.memcpy.p0.p0.i64(ptr nonnull align 1 %25, ptr nonnull align 1 %12, i64 %26, i1 false)
  %27 = load i64, ptr %14, align 8, !tbaa !17
  %28 = icmp ult i64 %., %27
  br i1 %28, label %29, label %37

29:                                               ; preds = %21
  %30 = load i64, ptr %10, align 8, !tbaa !13
  %31 = mul i64 %30, %.
  %32 = getelementptr inbounds nuw i8, ptr %12, i64 %31
  %33 = sub nuw i64 %27, %.
  %34 = mul i64 %30, %33
  tail call void @llvm.memmove.p0.p0.i64(ptr nonnull align 1 %12, ptr nonnull align 1 %32, i64 %34, i1 false)
  %35 = load i64, ptr %14, align 8, !tbaa !17
  %36 = sub i64 %35, %.
  br label %41

37:                                               ; preds = %21
  %.not47 = icmp ugt i64 %1, %15
  br i1 %.not47, label %38, label %41

38:                                               ; preds = %37
  %39 = load i64, ptr %3, align 8, !tbaa !12
  %40 = add i64 %39, %.
  br label %41

41:                                               ; preds = %38, %37, %29
  %storemerge = phi i64 [ %36, %29 ], [ %40, %38 ], [ 0, %37 ]
  store i64 %storemerge, ptr %14, align 8, !tbaa !17
  br label %42

42:                                               ; preds = %41, %18, %13
  %43 = load i64, ptr %3, align 8, !tbaa !12
  %44 = add i64 %43, %1
  store i64 %44, ptr %3, align 8, !tbaa !12
  br label %45

45:                                               ; preds = %7, %2, %42
  %.0 = phi i32 [ 0, %42 ], [ -22, %2 ], [ -12, %7 ]
  ret i32 %.0
}